target datalayout = "e-m:e-p270:32:32-p271:32:32-p272:64:64-i64:64-i128:128-f80:128-n8:16:32:64-S128"
target triple = "x86_64-pc-linux-gnu"

%"struct.icu_77::Edits::Iterator" = type <{ ptr, i32, i32, i32, i8, i8, i8, i8, i32, i32, i32, i32, i32, [4 x i8] }>

; Function Attrs: mustprogress nounwind uwtable
define void @_ZN6icu_775Edits8IteratorC2EPKtiaa(ptr noundef nonnull align 8 dereferenceable(48) %0, ptr noundef %1, i32 noundef %2, i8 noundef signext %3, i8 noundef signext %4) unnamed_addr #0 align 2 {
  %6 = alloca ptr, align 8
  %7 = alloca ptr, align 8
  %8 = alloca i32, align 4
  %9 = alloca i8, align 1
  %10 = alloca i8, align 1
  store ptr %0, ptr %6, align 8, !tbaa !40
  store ptr %1, ptr %7, align 8, !tbaa !33
  store i32 %2, ptr %8, align 4, !tbaa !14
  store i8 %3, ptr %9, align 1, !tbaa !38
  store i8 %4, ptr %10, align 1, !tbaa !38
  %11 = load ptr, ptr %6, align 8
  %12 = getelementptr inbounds nuw %"struct.icu_77::Edits::Iterator", ptr %11, i32 0, i32 0
  %13 = load ptr, ptr %7, align 8, !tbaa !33
  store ptr %13, ptr %12, align 8, !tbaa !47
  %14 = getelementptr inbounds nuw %"struct.icu_77::Edits::Iterator", ptr %11, i32 0, i32 1
  store i32 0, ptr %14, align 8, !tbaa !48
  %15 = getelementptr inbounds nuw %"struct.icu_77::Edits::Iterator", ptr %11, i32 0, i32 2
  %16 = load i32, ptr %8, align 4, !tbaa !14
  store i32 %16, ptr %15, align 4, !tbaa !49
  %17 = getelementptr inbounds nuw %"struct.icu_77::Edits::Iterator", ptr %11, i32 0, i32 3
  store i32 0, ptr %17, align 8, !tbaa !50
  %18 = getelementptr inbounds nuw %"struct.icu_77::Edits::Iterator", ptr %11, i32 0, i32 4
  %19 = load i8, ptr %9, align 1, !tbaa !38
  store i8 %19, ptr %18, align 4, !tbaa !42
  %20 = getelementptr inbounds nuw %"struct.icu_77::Edits::Iterator", ptr %11, i32 0, i32 5
  %21 = load i8, ptr %10, align 1, !tbaa !38
  store i8 %21, ptr %20, align 1, !tbaa !51
  %22 = getelementptr inbounds nuw %"struct.icu_77::Edits::Iterator", ptr %11, i32 0, i32 6
  store i8 0, ptr %22, align 2, !tbaa !52
  %23 = getelementptr inbounds nuw %"struct.icu_77::Edits::Iterator", ptr %11, i32 0, i32 7
  store i8 0, ptr %23, align 1, !tbaa !46
  %24 = getelementptr inbounds nuw %"struct.icu_77::Edits::Iterator", ptr %11, i32 0, i32 8
  store i32 0, ptr %24, align 8, !tbaa !44
  %25 = getelementptr inbounds nuw %"struct.icu_77::Edits::Iterator", ptr %11, i32 0, i32 9
  store i32 0, ptr %25, align 4, !tbaa !45
  %26 = getelementptr inbounds nuw %"struct.icu_77::Edits::Iterator", ptr %11, i32 0, i32 10
  store i32 0, ptr %26, align 8, !tbaa !53
  %27 = getelementptr inbounds nuw %"struct.icu_77::Edits::Iterator", ptr %11, i32 0, i32 11
  store i32 0, ptr %27, align 4, !tbaa !54
  %28 = getelementptr inbounds nuw %"struct.icu_77::Edits::Iterator", ptr %11, i32 0, i32 12
  store i32 0, ptr %28, align 8, !tbaa !55
  ret void
}