; Function Attrs: mustprogress nofree norecurse nosync nounwind willreturn memory(argmem: write) uwtable
define void @_ZN6icu_775Edits8IteratorC2EPKtiaa(ptr noundef nonnull writeonly align 8 captures(none) dereferenceable(48) initializes((0, 44)) %0, ptr noundef %1, i32 noundef %2, i8 noundef signext %3, i8 noundef signext %4) unnamed_addr #10 align 2 {
  store ptr %1, ptr %0, align 8, !tbaa !39
  %6 = getelementptr inbounds nuw i8, ptr %0, i64 8
  store i32 0, ptr %6, align 8, !tbaa !40
  %7 = getelementptr inbounds nuw i8, ptr %0, i64 12
  store i32 %2, ptr %7, align 4, !tbaa !41
  %8 = getelementptr inbounds nuw i8, ptr %0, i64 16
  store i32 0, ptr %8, align 8, !tbaa !42
  %9 = getelementptr inbounds nuw i8, ptr %0, i64 20
  store i8 %3, ptr %9, align 4, !tbaa !33
  %10 = getelementptr inbounds nuw i8, ptr %0, i64 21
  store i8 %4, ptr %10, align 1, !tbaa !43
  %11 = getelementptr inbounds nuw i8, ptr %0, i64 22
  tail call void @llvm.memset.p0.i64(ptr noundef nonnull align 2 dereferenceable(22) %11, i8 0, i64 22, i1 false)
  ret void
}